; Function Attrs: nounwind uwtable
define dso_local void @quicklistAppendListpack(ptr noundef captures(none) %0, ptr noundef %1) local_unnamed_addr #1 {
  %3 = tail call noalias dereferenceable_or_null(40) ptr @zmalloc(i64 noundef 40) #22
  %4 = getelementptr inbounds nuw i8, ptr %3, i64 16
  %5 = getelementptr inbounds nuw i8, ptr %3, i64 32
  %6 = load i32, ptr %5, align 8
  %7 = getelementptr inbounds nuw i8, ptr %3, i64 24
  %8 = and i32 %6, -6291456
  tail call void @llvm.memset.p0.i64(ptr noundef nonnull align 8 dereferenceable(16) %3, i8 0, i64 16, i1 false)
  store ptr %1, ptr %4, align 8, !tbaa !9
  %9 = tail call i64 @lpLength(ptr noundef %1) #23
  %10 = trunc i64 %9 to i32
  %11 = and i32 %10, 65535
  %12 = or disjoint i32 %8, %11
  %13 = or disjoint i32 %12, 589824
  store i32 %13, ptr %5, align 8
  %14 = tail call i64 @lpBytes(ptr noundef %1) #23
  store i64 %14, ptr %7, align 8, !tbaa !15
  %15 = getelementptr inbounds nuw i8, ptr %0, i64 8
  %16 = load ptr, ptr %15, align 8, !tbaa !16
  tail call void @__quicklistInsertNode(ptr noundef %0, ptr noundef %16, ptr noundef nonnull %3, i32 noundef 1)
  %17 = load i32, ptr %5, align 8
  %18 = and i32 %17, 65535
  %19 = zext nneg i32 %18 to i64
  %20 = getelementptr inbounds nuw i8, ptr %0, i64 16
  %21 = load i64, ptr %20, align 8, !tbaa !5
  %22 = add i64 %21, %19
  store i64 %22, ptr %20, align 8, !tbaa !5
  ret void
}